; Function Attrs: nounwind uwtable
define internal i32 @php_stream_temp_stat(ptr nocapture noundef readonly %0, ptr noundef %1) #0 {
  %3 = getelementptr inbounds i8, ptr %0, i64 8
  %4 = load ptr, ptr %3, align 8
  %.not = icmp eq ptr %4, null
  br i1 %.not, label %9, label %5

5:                                                ; preds = %2
  %6 = load ptr, ptr %4, align 8
  %.not7 = icmp eq ptr %6, null
  br i1 %.not7, label %9, label %7

7:                                                ; preds = %5
  %8 = tail call i32 @_php_stream_stat(ptr noundef nonnull %6, ptr noundef %1) #20
  br label %9

9:                                                ; preds = %2, %5, %7
  %.0 = phi i32 [ %8, %7 ], [ -1, %5 ], [ -1, %2 ]
  ret i32 %.0
}